.text
	.file	"11ker.c"
	.globl	victim_function     # -- Begin function victim_function_v11
	.p2align	4, 0x90
	.type	victim_function,@function
victim_function:                    # @victim_function_v11
	.cfi_startproc
# %bb.0:
	pushq	%rbp
	.cfi_def_cfa_offset 16
	.cfi_offset %rbp, -16
	movq	%rsp, %rbp
	.cfi_def_cfa_register %rbp
	subq	$16, %rsp
	movq	%rdi, -8(%rbp)
	movq	-8(%rbp), %rdi
	movl	array1_size(%rip), %eax
	movl	%eax, %ecx
	cmpq	%rcx, %rdi
	jae	.LBB0_2
# %bb.1:
	movq	-8(%rbp), %rax
	leaq	array1(%rip), %rcx
	movzbl	(%rcx,%rax), %edx
	shll	$9, %edx
	movslq	%edx, %rax
	leaq	array2(%rip), %rcx
	addq	%rax, %rcx
	leaq	temp(%rip), %rdi
	movq	%rcx, %rsi
	movl	$1, %edx
	callq	mymemcmp
	movb	%al, %r8b
	movb	%r8b, temp(%rip)
.LBB0_2:
	addq	$16, %rsp
	popq	%rbp
	.cfi_def_cfa %rsp, 8
	retq
.Lfunc_end0:
#	.size	victim_function_v11, .Lfunc_end0-victim_function_v11
	.cfi_endproc
                                        # -- End function
	.globl	mymemcmp                # -- Begin function mymemcmp
	.p2align	4, 0x90
	.type	mymemcmp,@function
mymemcmp:                               # @mymemcmp
	.cfi_startproc
# %bb.0:
	pushq	%rbp
	.cfi_def_cfa_offset 16
	.cfi_offset %rbp, -16
	movq	%rsp, %rbp
	.cfi_def_cfa_register %rbp
	movq	%rdi, -8(%rbp)
	movq	%rsi, -16(%rbp)
	movq	%rdx, -24(%rbp)
	movl	$0, -44(%rbp)
	movq	-8(%rbp), %rdx
	movq	%rdx, -32(%rbp)
	movq	-16(%rbp), %rdx
	movq	%rdx, -40(%rbp)
.LBB1_1:                                # =>This Inner Loop Header: Depth=1
	xorl	%eax, %eax
	movl	%eax, %ecx
	cmpq	-24(%rbp), %rcx
	jae	.LBB1_6
# %bb.2:                                #   in Loop: Header=BB1_1 Depth=1
	movq	-32(%rbp), %rax
	movzbl	(%rax), %ecx
	movq	-40(%rbp), %rax
	movzbl	(%rax), %edx
	subl	%edx, %ecx
	movl	%ecx, -44(%rbp)
	cmpl	$0, %ecx
	je	.LBB1_4
# %bb.3:
	jmp	.LBB1_6
.LBB1_4:                                #   in Loop: Header=BB1_1 Depth=1
	jmp	.LBB1_5
.LBB1_5:                                #   in Loop: Header=BB1_1 Depth=1
	movq	-32(%rbp), %rax
	addq	$1, %rax
	movq	%rax, -32(%rbp)
	movq	-40(%rbp), %rax
	addq	$1, %rax
	movq	%rax, -40(%rbp)
	movq	-24(%rbp), %rax
	addq	$-1, %rax
	movq	%rax, -24(%rbp)
	jmp	.LBB1_1
.LBB1_6:
	movl	-44(%rbp), %eax
	popq	%rbp
	.cfi_def_cfa %rsp, 8
	retq
.Lfunc_end1:
	.size	mymemcmp, .Lfunc_end1-mymemcmp
	.cfi_endproc
