.text
	.globl	victim_function
	.type	victim_function, @function
victim_function:
.LFB7:
	.cfi_startproc
	pushq	%rbp
	.cfi_def_cfa_offset 16
	.cfi_offset 6, -16
	movq	%rsp, %rbp
	.cfi_def_cfa_register 6
	movq	%rdi, -24(%rbp)
	movq	-24(%rbp), %rax
	movq	%rax, -8(%rbp)
	movl	array1_size(%rip), %eax
	movl	%eax, %eax
	cmpq	%rax, -8(%rbp)
	jnb	.L5
	movl	$1, %eax
	jmp	.L6
.L5:
	movl	$0, %eax
.L6:
	testl	%eax, %eax
	je	.L8
	movq	-24(%rbp), %rax
	addq	$array1, %rax
	movzbl	(%rax), %eax
	movzbl	%al, %eax
	sall	$9, %eax
	cltq
	movzbl	array2(%rax), %edx
	movzbl	temp(%rip), %eax
	andl	%edx, %eax
	movb	%al, temp(%rip)
.L8:
	nop
	popq	%rbp
	.cfi_def_cfa 7, 8
	ret
	.cfi_endproc

	.globl	is_x_safe
	.type	is_x_safe, @function
is_x_safe:
.LFB6:
	.cfi_startproc
	pushq	%rbp
	.cfi_def_cfa_offset 16
	.cfi_offset 6, -16
	movq	%rsp, %rbp
	.cfi_def_cfa_register 6
	movq	%rdi, -8(%rbp)
	movl	array1_size(%rip), %eax
	movl	%eax, %eax
	cmpq	%rax, -8(%rbp)
	jnb	.L2
	movl	$1, %eax
	jmp	.L3
.L2:
	movl	$0, %eax
.L3:
	popq	%rbp
	.cfi_def_cfa 7, 8
	ret
	.cfi_endproc
